target datalayout = "e-m:e-p270:32:32-p271:32:32-p272:64:64-i64:64-i128:128-f80:128-n8:16:32:64-S128"
target triple = "x86_64-pc-linux-gnu"

%"class.pxrInternal_v0_24__pxrReserved__::UsdTimeCode" = type { double }
%"class.pxrInternal_v0_24__pxrReserved__::UsdObject" = type { i32, %"class.pxrInternal_v0_24__pxrReserved__::Usd_PrimDataHandle", %"class.pxrInternal_v0_24__pxrReserved__::SdfPath", %"class.pxrInternal_v0_24__pxrReserved__::TfToken" }
%"class.pxrInternal_v0_24__pxrReserved__::Usd_PrimDataHandle" = type { %"class.pxrInternal_v0_24__pxrReserved__::TfDelegatedCountPtr" }
%"class.pxrInternal_v0_24__pxrReserved__::TfDelegatedCountPtr" = type { ptr }
%"class.pxrInternal_v0_24__pxrReserved__::SdfPath" = type { %"struct.pxrInternal_v0_24__pxrReserved__::Sdf_PathNodeHandleImpl", %"struct.pxrInternal_v0_24__pxrReserved__::Sdf_PathNodeHandleImpl.0" }
%"struct.pxrInternal_v0_24__pxrReserved__::Sdf_PathNodeHandleImpl" = type { %"struct.pxrInternal_v0_24__pxrReserved__::Sdf_Pool<pxrInternal_v0_24__pxrReserved__::Sdf_PathPrimTag, 24, 8>::Handle" }
%"struct.pxrInternal_v0_24__pxrReserved__::Sdf_Pool<pxrInternal_v0_24__pxrReserved__::Sdf_PathPrimTag, 24, 8>::Handle" = type { i32 }
%"struct.pxrInternal_v0_24__pxrReserved__::Sdf_PathNodeHandleImpl.0" = type { %"struct.pxrInternal_v0_24__pxrReserved__::Sdf_Pool<pxrInternal_v0_24__pxrReserved__::Sdf_PathPropTag, 24, 8>::Handle" }
%"struct.pxrInternal_v0_24__pxrReserved__::Sdf_Pool<pxrInternal_v0_24__pxrReserved__::Sdf_PathPropTag, 24, 8>::Handle" = type { i32 }
%"class.pxrInternal_v0_24__pxrReserved__::TfToken" = type { %"class.pxrInternal_v0_24__pxrReserved__::TfPointerAndBits" }
%"class.pxrInternal_v0_24__pxrReserved__::TfPointerAndBits" = type { ptr }
%"struct.std::atomic.26" = type { %"struct.std::__atomic_base.27" }
%"struct.std::__atomic_base.27" = type { i64 }
%"class.pxrInternal_v0_24__pxrReserved__::Usd_PrimData" = type { ptr, ptr, %"class.pxrInternal_v0_24__pxrReserved__::SdfPath", ptr, ptr, %"class.pxrInternal_v0_24__pxrReserved__::TfPointerAndBits.230", %"struct.std::atomic.26", %"class.std::bitset" }
%"class.pxrInternal_v0_24__pxrReserved__::TfPointerAndBits.230" = type { ptr }
%"class.std::bitset" = type { %"struct.std::_Base_bitset" }
%"struct.std::_Base_bitset" = type { i64 }

; Function Attrs: mustprogress nounwind uwtable
define linkonce_odr noundef i64 @_ZNSt12_Base_bitsetILm1EE11_S_whichbitEm(i64 noundef %0) #3 comdat align 2 {
  %2 = alloca i64, align 8
  store i64 %0, ptr %2, align 8
  %3 = load i64, ptr %2, align 8
  %4 = urem i64 %3, 64
  ret i64 %4
}

; Function Attrs: mustprogress nounwind uwtable
define linkonce_odr noundef i64 @_ZNSt12_Base_bitsetILm1EE10_S_maskbitEm(i64 noundef %0) #3 comdat align 2 {
  %2 = alloca i64, align 8
  store i64 %0, ptr %2, align 8
  %3 = load i64, ptr %2, align 8
  %4 = call noundef i64 @_ZNSt12_Base_bitsetILm1EE11_S_whichbitEm(i64 noundef %3) #11
  %5 = shl i64 1, %4
  ret i64 %5
}

; Function Attrs: mustprogress nounwind uwtable
define linkonce_odr noundef i64 @_ZNKSt12_Base_bitsetILm1EE10_M_getwordEm(ptr noundef nonnull align 8 dereferenceable(8) %0, i64 noundef %1) #3 comdat align 2 {
  %3 = alloca ptr, align 8
  %4 = alloca i64, align 8
  store ptr %0, ptr %3, align 8
  store i64 %1, ptr %4, align 8
  %5 = load ptr, ptr %3, align 8
  %6 = getelementptr inbounds nuw %"struct.std::_Base_bitset", ptr %5, i32 0, i32 0
  %7 = load i64, ptr %6, align 8
  ret i64 %7
}

; Function Attrs: mustprogress nounwind uwtable
define linkonce_odr noundef zeroext i1 @_ZNKSt6bitsetILm15EE15_Unchecked_testEm(ptr noundef nonnull align 8 dereferenceable(8) %0, i64 noundef %1) #3 comdat align 2 {
  %3 = alloca ptr, align 8
  %4 = alloca i64, align 8
  store ptr %0, ptr %3, align 8
  store i64 %1, ptr %4, align 8
  %5 = load ptr, ptr %3, align 8
  %6 = load i64, ptr %4, align 8
  %7 = call noundef i64 @_ZNKSt12_Base_bitsetILm1EE10_M_getwordEm(ptr noundef nonnull align 8 dereferenceable(8) %5, i64 noundef %6) #11
  %8 = load i64, ptr %4, align 8
  %9 = call noundef i64 @_ZNSt12_Base_bitsetILm1EE10_S_maskbitEm(i64 noundef %8) #11
  %10 = and i64 %7, %9
  %11 = icmp ne i64 %10, 0
  ret i1 %11
}

; Function Attrs: mustprogress nounwind uwtable
define linkonce_odr noundef zeroext i1 @_ZNKSt6bitsetILm15EEixEm(ptr noundef nonnull align 8 dereferenceable(8) %0, i64 noundef %1) #3 comdat align 2 {
  %3 = alloca ptr, align 8
  %4 = alloca i64, align 8
  store ptr %0, ptr %3, align 8
  store i64 %1, ptr %4, align 8
  %5 = load ptr, ptr %3, align 8
  %6 = load i64, ptr %4, align 8
  %7 = call noundef zeroext i1 @_ZNKSt6bitsetILm15EE15_Unchecked_testEm(ptr noundef nonnull align 8 dereferenceable(8) %5, i64 noundef %6) #11
  ret i1 %7
}

; Function Attrs: mustprogress uwtable
define linkonce_odr noundef zeroext i1 @_ZNK32pxrInternal_v0_24__pxrReserved__12Usd_PrimData7_IsDeadEv(ptr noundef nonnull align 8 dereferenceable(64) %0) #0 comdat align 2 {
  %2 = alloca ptr, align 8
  store ptr %0, ptr %2, align 8
  %3 = load ptr, ptr %2, align 8
  %4 = getelementptr inbounds nuw %"class.pxrInternal_v0_24__pxrReserved__::Usd_PrimData", ptr %3, i32 0, i32 7
  %5 = call noundef zeroext i1 @_ZNKSt6bitsetILm15EEixEm(ptr noundef nonnull align 8 dereferenceable(8) %4, i64 noundef 11)
  ret i1 %5
}

; Function Attrs: mustprogress uwtable
define linkonce_odr noundef zeroext i1 @_ZN32pxrInternal_v0_24__pxrReserved__10Usd_IsDeadEPKNS_12Usd_PrimDataE(ptr noundef %0) #0 comdat {
  %2 = alloca ptr, align 8
  store ptr %0, ptr %2, align 8
  %3 = load ptr, ptr %2, align 8
  %4 = call noundef zeroext i1 @_ZNK32pxrInternal_v0_24__pxrReserved__12Usd_PrimData7_IsDeadEv(ptr noundef nonnull align 8 dereferenceable(64) %3)
  ret i1 %4
}

; Function Attrs: mustprogress nounwind uwtable
define linkonce_odr noundef ptr @_ZNK32pxrInternal_v0_24__pxrReserved__19TfDelegatedCountPtrIKNS_12Usd_PrimDataEE3getEv(ptr noundef nonnull align 8 dereferenceable(8) %0) #3 comdat align 2 {
  %2 = alloca ptr, align 8
  store ptr %0, ptr %2, align 8
  %3 = load ptr, ptr %2, align 8
  %4 = getelementptr inbounds nuw %"class.pxrInternal_v0_24__pxrReserved__::TfDelegatedCountPtr", ptr %3, i32 0, i32 0
  %5 = load ptr, ptr %4, align 8
  ret ptr %5
}

; Function Attrs: mustprogress nounwind uwtable
define linkonce_odr noundef ptr @_ZNK32pxrInternal_v0_24__pxrReserved__12Usd_PrimData8GetStageEv(ptr noundef nonnull align 8 dereferenceable(64) %0) #3 comdat align 2 {
  %2 = alloca ptr, align 8
  store ptr %0, ptr %2, align 8
  %3 = load ptr, ptr %2, align 8
  %4 = getelementptr inbounds nuw %"class.pxrInternal_v0_24__pxrReserved__::Usd_PrimData", ptr %3, i32 0, i32 0
  %5 = load ptr, ptr %4, align 8
  ret ptr %5
}

; Function Attrs: mustprogress uwtable
define linkonce_odr noundef ptr @_ZNK32pxrInternal_v0_24__pxrReserved__18Usd_PrimDataHandleptEv(ptr noundef nonnull align 8 dereferenceable(8) %0) #0 comdat align 2 {
  %2 = alloca ptr, align 8
  %3 = alloca ptr, align 8
  store ptr %0, ptr %2, align 8
  %4 = load ptr, ptr %2, align 8
  %5 = getelementptr inbounds nuw %"class.pxrInternal_v0_24__pxrReserved__::Usd_PrimDataHandle", ptr %4, i32 0, i32 0
  %6 = call noundef ptr @_ZNK32pxrInternal_v0_24__pxrReserved__19TfDelegatedCountPtrIKNS_12Usd_PrimDataEE3getEv(ptr noundef nonnull align 8 dereferenceable(8) %5) #11
  store ptr %6, ptr %3, align 8
  %7 = load ptr, ptr %3, align 8
  %8 = icmp ne ptr %7, null
  br i1 %8, label %9, label %12

9:                                                ; preds = %1
  %10 = load ptr, ptr %3, align 8
  %11 = call noundef zeroext i1 @_ZN32pxrInternal_v0_24__pxrReserved__10Usd_IsDeadEPKNS_12Usd_PrimDataE(ptr noundef %10)
  br i1 %11, label %12, label %14

12:                                               ; preds = %9, %1
  %13 = load ptr, ptr %3, align 8
  call void @_ZN32pxrInternal_v0_24__pxrReserved__31Usd_ThrowExpiredPrimAccessErrorEPKNS_12Usd_PrimDataE(ptr noundef %13)
  br label %14

14:                                               ; preds = %12, %9
  %15 = load ptr, ptr %3, align 8
  ret ptr %15
}

; Function Attrs: mustprogress uwtable
define linkonce_odr noundef ptr @_ZNK32pxrInternal_v0_24__pxrReserved__9UsdObject9_GetStageEv(ptr noundef nonnull align 8 dereferenceable(32) %0) #0 comdat align 2 {
  %2 = alloca ptr, align 8
  store ptr %0, ptr %2, align 8
  %3 = load ptr, ptr %2, align 8
  %4 = getelementptr inbounds nuw %"class.pxrInternal_v0_24__pxrReserved__::UsdObject", ptr %3, i32 0, i32 1
  %5 = call noundef ptr @_ZNK32pxrInternal_v0_24__pxrReserved__18Usd_PrimDataHandleptEv(ptr noundef nonnull align 8 dereferenceable(8) %4)
  %6 = call noundef ptr @_ZNK32pxrInternal_v0_24__pxrReserved__12Usd_PrimData8GetStageEv(ptr noundef nonnull align 8 dereferenceable(64) %5)
  ret ptr %6
}

; Function Attrs: mustprogress uwtable
define noundef zeroext i1 @_ZNK32pxrInternal_v0_24__pxrReserved__12UsdAttribute3GetEPNS_7VtValueENS_11UsdTimeCodeE(ptr noundef nonnull align 8 dereferenceable(32) %0, ptr noundef %1, double %2) #0 align 2 {
  %4 = alloca %"class.pxrInternal_v0_24__pxrReserved__::UsdTimeCode", align 8
  %5 = alloca ptr, align 8
  %6 = alloca ptr, align 8
  %7 = alloca %"class.pxrInternal_v0_24__pxrReserved__::UsdTimeCode", align 8
  %8 = getelementptr inbounds nuw %"class.pxrInternal_v0_24__pxrReserved__::UsdTimeCode", ptr %4, i32 0, i32 0
  store double %2, ptr %8, align 8
  store ptr %0, ptr %5, align 8
  store ptr %1, ptr %6, align 8
  %9 = load ptr, ptr %5, align 8
  %10 = call noundef ptr @_ZNK32pxrInternal_v0_24__pxrReserved__9UsdObject9_GetStageEv(ptr noundef nonnull align 8 dereferenceable(32) %9)
  call void @llvm.memcpy.p0.p0.i64(ptr align 8 %7, ptr align 8 %4, i64 8, i1 false)
  %11 = load ptr, ptr %6, align 8
  %12 = getelementptr inbounds nuw %"class.pxrInternal_v0_24__pxrReserved__::UsdTimeCode", ptr %7, i32 0, i32 0
  %13 = load double, ptr %12, align 8
  %14 = call noundef zeroext i1 @_ZNK32pxrInternal_v0_24__pxrReserved__8UsdStage9_GetValueENS_11UsdTimeCodeERKNS_12UsdAttributeEPNS_7VtValueE(ptr noundef nonnull align 8 dereferenceable(1282) %10, double %13, ptr noundef nonnull align 8 dereferenceable(32) %9, ptr noundef %11)
  ret i1 %14
}