; Function Attrs: mustprogress uwtable
define noundef zeroext i1 @_ZNK32pxrInternal_v0_24__pxrReserved__12UsdAttribute3GetEPNS_7VtValueENS_11UsdTimeCodeE(ptr noundef nonnull align 8 dereferenceable(32) %0, ptr noundef %1, double %2) local_unnamed_addr #0 align 2 {
  %4 = getelementptr inbounds nuw i8, ptr %0, i64 8
  %5 = load ptr, ptr %4, align 8
  %.not.i.i = icmp eq ptr %5, null
  br i1 %.not.i.i, label %10, label %6

6:                                                ; preds = %3
  %7 = getelementptr inbounds nuw i8, ptr %5, i64 56
  %8 = load i64, ptr %7, align 8
  %9 = and i64 %8, 2048
  %.not5.i.i = icmp eq i64 %9, 0
  br i1 %.not5.i.i, label %_ZNK32pxrInternal_v0_24__pxrReserved__9UsdObject9_GetStageEv.exit, label %10

10:                                               ; preds = %6, %3
  tail call void @_ZN32pxrInternal_v0_24__pxrReserved__31Usd_ThrowExpiredPrimAccessErrorEPKNS_12Usd_PrimDataE(ptr noundef %5)
  br label %_ZNK32pxrInternal_v0_24__pxrReserved__9UsdObject9_GetStageEv.exit

_ZNK32pxrInternal_v0_24__pxrReserved__9UsdObject9_GetStageEv.exit: ; preds = %6, %10
  %11 = load ptr, ptr %5, align 8
  %12 = tail call noundef zeroext i1 @_ZNK32pxrInternal_v0_24__pxrReserved__8UsdStage9_GetValueENS_11UsdTimeCodeERKNS_12UsdAttributeEPNS_7VtValueE(ptr noundef nonnull align 8 dereferenceable(1282) %11, double %2, ptr noundef nonnull align 8 dereferenceable(32) %0, ptr noundef %1)
  ret i1 %12
}